Certificate:
    Data:
        Version: 3 (0x2)
        Serial Number: 7 (0x7)
        Signature Algorithm: sha1WithRSAEncryption
        Issuer: C=ES, ST=Madrid, L=Madrid, O=ASPL, OU=TI Support, CN=central-ca.aspl.test/emailAddress=soporte@aspl.es
        Validity
            Not Before: Nov 17 15:25:01 2014 GMT
            Not After : Nov 14 15:25:01 2024 GMT
        Subject: C=ES, ST=Madrid, O=ASPL, OU=TI Support, CN=client-side-cert-auth/emailAddress=soporte@aspl.es
        Subject Public Key Info:
            Public Key Algorithm: rsaEncryption
            RSA Public Key: (1024 bit)
                Modulus (1024 bit):
                    00:aa:ee:b5:d4:36:05:a3:7d:49:9f:f1:62:66:58:
                    41:de:50:0b:8b:ce:5c:15:66:9f:1b:9a:00:e8:96:
                    87:ba:d3:ee:7e:1e:1a:71:5b:66:0b:d5:67:3c:d2:
                    30:60:a5:e1:b0:22:03:34:74:d2:09:17:0a:20:dc:
                    ba:90:1f:05:f6:63:a5:b8:99:27:08:69:90:b6:8d:
                    d2:e2:a4:a1:01:de:9e:0e:64:67:99:66:fb:a6:43:
                    0a:c5:1c:3b:23:82:d4:f3:e1:b4:0e:ab:f0:cd:03:
                    f8:e4:1e:e6:c6:ae:f7:ba:40:db:d2:ff:29:14:9a:
                    ca:07:78:af:68:b2:c3:e2:11
                Exponent: 65537 (0x10001)
        X509v3 extensions:
            X509v3 Basic Constraints: 
                CA:FALSE
            Netscape Cert Type: 
                SSL Server
            Netscape Comment: 
                OpenSSL Generated Certificate
            X509v3 Subject Key Identifier: 
                7B:12:8E:79:36:CD:72:96:BA:AA:3D:59:97:3D:95:5F:85:9F:5E:97
            X509v3 Authority Key Identifier: 
                keyid:3E:B0:1F:59:CA:9B:CD:3C:D4:75:7D:90:42:D8:0E:73:33:24:61:34

    Signature Algorithm: sha1WithRSAEncryption
        57:e9:90:1a:1f:3b:7e:84:3c:68:cd:eb:76:26:94:3f:ae:e3:
        ab:e3:48:2e:e0:c8:83:01:1e:2b:ea:39:de:b3:f6:98:d2:ae:
        00:a4:4d:ca:38:a4:9b:c2:10:da:bd:f1:da:09:7e:d6:bc:c6:
        c8:ad:89:68:b5:95:40:68:0c:7a:87:b3:0e:d0:6c:97:dc:d9:
        43:7d:20:31:67:0e:2c:94:96:e1:a4:ed:7a:c5:e0:36:43:53:
        e2:04:85:5b:40:91:14:b9:f8:29:88:cd:3f:b2:b1:15:75:1b:
        42:48:6f:9f:87:3f:c6:85:65:d1:ca:a5:d0:4a:2e:3f:f8:5a:
        a4:5c
-----BEGIN CERTIFICATE-----
MIIDHDCCAoWgAwIBAgIBBzANBgkqhkiG9w0BAQUFADCBkjELMAkGA1UEBhMCRVMx
DzANBgNVBAgTBk1hZHJpZDEPMA0GA1UEBxMGTWFkcmlkMQ0wCwYDVQQKEwRBU1BM
MRMwEQYDVQQLEwpUSSBTdXBwb3J0MR0wGwYDVQQDExRjZW50cmFsLWNhLmFzcGwu
dGVzdDEeMBwGCSqGSIb3DQEJARYPc29wb3J0ZUBhc3BsLmVzMB4XDTE0MTExNzE1
MjUwMVoXDTI0MTExNDE1MjUwMVowgYIxCzAJBgNVBAYTAkVTMQ8wDQYDVQQIEwZN
YWRyaWQxDTALBgNVBAoTBEFTUEwxEzARBgNVBAsTClRJIFN1cHBvcnQxHjAcBgNV
BAMTFWNsaWVudC1zaWRlLWNlcnQtYXV0aDEeMBwGCSqGSIb3DQEJARYPc29wb3J0
ZUBhc3BsLmVzMIGfMA0GCSqGSIb3DQEBAQUAA4GNADCBiQKBgQCq7rXUNgWjfUmf
8WJmWEHeUAuLzlwVZp8bmgDoloe60+5+HhpxW2YL1Wc80jBgpeGwIgM0dNIJFwog
3LqQHwX2Y6W4mScIaZC2jdLipKEB3p4OZGeZZvumQwrFHDsjgtTz4bQOq/DNA/jk
HubGrve6QNvS/ykUmsoHeK9ossPiEQIDAQABo4GPMIGMMAkGA1UdEwQCMAAwEQYJ
YIZIAYb4QgEBBAQDAgZAMCwGCWCGSAGG+EIBDQQfFh1PcGVuU1NMIEdlbmVyYXRl
ZCBDZXJ0aWZpY2F0ZTAdBgNVHQ4EFgQUexKOeTbNcpa6qj1Zlz2VX4WfXpcwHwYD
VR0jBBgwFoAUPrAfWcqbzTzUdX2QQtgOczMkYTQwDQYJKoZIhvcNAQEFBQADgYEA
V+mQGh87foQ8aM3rdiaUP67jq+NILuDIgwEeK+o53rP2mNKuAKRNyjikm8IQ2r3x
2gl+1rzGyK2JaLWVQGgMeoezDtBsl9zZQ30gMWcOLJSW4aTtesXgNkNT4gSFW0CR
FLn4KYjNP7KxFXUbQkhvn4c/xoVl0cql0EouP/hapFw=
-----END CERTIFICATE-----
